target datalayout = "e-m:e-p270:32:32-p271:32:32-p272:64:64-i64:64-i128:128-f80:128-n8:16:32:64-S128"
target triple = "x86_64-pc-linux-gnu"

%struct.HTable = type { i32, ptr }
%struct.SEntry2_ = type { ptr, ptr, ptr }

; Function Attrs: nounwind uwtable
define dso_local ptr @htable_set(ptr noundef %0, ptr noundef %1, ptr noundef %2) #0 {
  %4 = alloca ptr, align 8
  %5 = alloca ptr, align 8
  %6 = alloca ptr, align 8
  %7 = alloca ptr, align 8
  %8 = alloca i32, align 4
  %9 = alloca ptr, align 8
  %10 = alloca ptr, align 8
  %11 = alloca ptr, align 8
  store ptr %0, ptr %5, align 8
  store ptr %1, ptr %6, align 8
  store ptr %2, ptr %7, align 8
  %12 = load ptr, ptr %6, align 8
  %13 = ptrtoint ptr %12 to i64
  %14 = load ptr, ptr %6, align 8
  %15 = ptrtoint ptr %14 to i64
  %16 = lshr i64 %15, 8
  %17 = xor i64 %13, %16
  %18 = load ptr, ptr %5, align 8
  %19 = getelementptr inbounds %struct.HTable, ptr %18, i32 0, i32 0
  %20 = load i32, ptr %19, align 8
  %21 = zext i32 %20 to i64
  %22 = and i64 %17, %21
  %23 = trunc i64 %22 to i32
  store i32 %23, ptr %8, align 4
  %24 = load ptr, ptr %5, align 8
  %25 = getelementptr inbounds %struct.HTable, ptr %24, i32 0, i32 1
  %26 = load ptr, ptr %25, align 8
  %27 = load i32, ptr %8, align 4
  %28 = zext i32 %27 to i64
  %29 = getelementptr inbounds ptr, ptr %26, i64 %28
  store ptr %29, ptr %9, align 8
  %30 = load ptr, ptr %9, align 8
  %31 = load ptr, ptr %30, align 8
  store ptr %31, ptr %10, align 8
  %32 = load ptr, ptr %10, align 8
  %33 = icmp ne ptr %32, null
  br i1 %33, label %44, label %34

34:                                               ; preds = %3
  %35 = call ptr @calloc_arena(i64 noundef 24)
  store ptr %35, ptr %10, align 8
  %36 = load ptr, ptr %6, align 8
  %37 = load ptr, ptr %10, align 8
  %38 = getelementptr inbounds %struct.SEntry2_, ptr %37, i32 0, i32 0
  store ptr %36, ptr %38, align 8
  %39 = load ptr, ptr %7, align 8
  %40 = load ptr, ptr %10, align 8
  %41 = getelementptr inbounds %struct.SEntry2_, ptr %40, i32 0, i32 1
  store ptr %39, ptr %41, align 8
  %42 = load ptr, ptr %10, align 8
  %43 = load ptr, ptr %9, align 8
  store ptr %42, ptr %43, align 8
  store ptr null, ptr %4, align 8
  br label %76

44:                                               ; preds = %3
  %45 = load ptr, ptr %10, align 8
  store ptr %45, ptr %11, align 8
  br label %46

46:                                               ; preds = %60, %44
  %47 = load ptr, ptr %10, align 8
  %48 = getelementptr inbounds %struct.SEntry2_, ptr %47, i32 0, i32 0
  %49 = load ptr, ptr %48, align 8
  %50 = load ptr, ptr %6, align 8
  %51 = icmp eq ptr %49, %50
  br i1 %51, label %52, label %56

52:                                               ; preds = %46
  %53 = load ptr, ptr %10, align 8
  %54 = getelementptr inbounds %struct.SEntry2_, ptr %53, i32 0, i32 1
  %55 = load ptr, ptr %54, align 8
  store ptr %55, ptr %4, align 8
  br label %76

56:                                               ; preds = %46
  %57 = load ptr, ptr %10, align 8
  %58 = getelementptr inbounds %struct.SEntry2_, ptr %57, i32 0, i32 2
  %59 = load ptr, ptr %58, align 8
  store ptr %59, ptr %10, align 8
  br label %60

60:                                               ; preds = %56
  %61 = load ptr, ptr %10, align 8
  %62 = icmp ne ptr %61, null
  br i1 %62, label %46, label %63, !llvm.loop !19

63:                                               ; preds = %60
  %64 = call ptr @calloc_arena(i64 noundef 24)
  store ptr %64, ptr %10, align 8
  %65 = load ptr, ptr %6, align 8
  %66 = load ptr, ptr %10, align 8
  %67 = getelementptr inbounds %struct.SEntry2_, ptr %66, i32 0, i32 0
  store ptr %65, ptr %67, align 8
  %68 = load ptr, ptr %7, align 8
  %69 = load ptr, ptr %10, align 8
  %70 = getelementptr inbounds %struct.SEntry2_, ptr %69, i32 0, i32 1
  store ptr %68, ptr %70, align 8
  %71 = load ptr, ptr %11, align 8
  %72 = load ptr, ptr %10, align 8
  %73 = getelementptr inbounds %struct.SEntry2_, ptr %72, i32 0, i32 2
  store ptr %71, ptr %73, align 8
  %74 = load ptr, ptr %10, align 8
  %75 = load ptr, ptr %9, align 8
  store ptr %74, ptr %75, align 8
  store ptr null, ptr %4, align 8
  br label %76

76:                                               ; preds = %63, %52, %34
  %77 = load ptr, ptr %4, align 8
  ret ptr %77
}