; Function Attrs: nounwind uwtable
define dso_local ptr @htable_set(ptr nocapture noundef readonly %0, ptr noundef %1, ptr noundef %2) local_unnamed_addr #2 {
  %4 = ptrtoint ptr %1 to i64
  %5 = lshr i64 %4, 8
  %6 = xor i64 %5, %4
  %7 = load i32, ptr %0, align 8
  %8 = trunc i64 %6 to i32
  %9 = and i32 %7, %8
  %10 = getelementptr inbounds i8, ptr %0, i64 8
  %11 = load ptr, ptr %10, align 8
  %12 = zext i32 %9 to i64
  %13 = getelementptr inbounds ptr, ptr %11, i64 %12
  %14 = load ptr, ptr %13, align 8
  %.not = icmp eq ptr %14, null
  br i1 %.not, label %15, label %.preheader

15:                                               ; preds = %3
  %16 = tail call ptr @calloc_arena(i64 noundef 24) #12
  store ptr %1, ptr %16, align 8
  %17 = getelementptr inbounds i8, ptr %16, i64 8
  store ptr %2, ptr %17, align 8
  store ptr %16, ptr %13, align 8
  br label %30

.preheader:                                       ; preds = %3, %23
  %.027 = phi ptr [ %25, %23 ], [ %14, %3 ]
  %18 = load ptr, ptr %.027, align 8
  %19 = icmp eq ptr %18, %1
  br i1 %19, label %20, label %23

20:                                               ; preds = %.preheader
  %21 = getelementptr inbounds i8, ptr %.027, i64 8
  %22 = load ptr, ptr %21, align 8
  br label %30

23:                                               ; preds = %.preheader
  %24 = getelementptr inbounds i8, ptr %.027, i64 16
  %25 = load ptr, ptr %24, align 8
  %.not31 = icmp eq ptr %25, null
  br i1 %.not31, label %26, label %.preheader, !llvm.loop !13

26:                                               ; preds = %23
  %27 = tail call ptr @calloc_arena(i64 noundef 24) #12
  store ptr %1, ptr %27, align 8
  %28 = getelementptr inbounds i8, ptr %27, i64 8
  store ptr %2, ptr %28, align 8
  %29 = getelementptr inbounds i8, ptr %27, i64 16
  store ptr %14, ptr %29, align 8
  store ptr %27, ptr %13, align 8
  br label %30

30:                                               ; preds = %26, %20, %15
  %.0 = phi ptr [ %22, %20 ], [ null, %26 ], [ null, %15 ]
  ret ptr %.0
}